#include <math.h>
#include <stdio.h>
#include <stdlib.h>
#include <string.h>
#include <iostream>
using namespace std;

//******************************
//* ????7???????   ** 
//* ?????? 1300012948   ** 
//* ???2013.10.10          ** 
//******************************
int main()
{
    int n, sum = 0, a, b;        // ???????????????????????????????????????????sum????0 
    cin >> n;                    // ??????n 
    for(int i = 1; i <= n; i++)  // ?????????7??????? 
    if(i % 7 != 0)               // ???i??7?????0?????i???????????a????i???????????b 
    {           
         a = i / 10;             
         b = i - a * 10;         
         if(a != 7 && b != 7)    // ???i?????????????7???????i?????sum
         {
              sum = sum + i * i;
         }
    }
    cout << sum << endl;         // ??sum 
    return 0;
} 